target datalayout = "e-m:e-p270:32:32-p271:32:32-p272:64:64-i64:64-i128:128-f80:128-n8:16:32:64-S128"
target triple = "x86_64-pc-linux-gnu"

%class.Generation = type { ptr, ptr, %class.MemRegion, %class.VirtualSpace, ptr }
%class.VirtualSpace = type { ptr, ptr, ptr, ptr, i8, i8, ptr, ptr, ptr, ptr, ptr, ptr, i64, i64, i64 }
%class.MemRegion = type { ptr, i64 }
%class.DefNewGeneration = type { %class.Generation, ptr, i32, %class.AgeTable, i64, %class.SpanSubjectToDiscoveryClosure, ptr, i8, %class.PromotionFailedInfo, %class.PreservedMarksSet, %class.Stack, i8, ptr, ptr, ptr, ptr, i64, i64, ptr, ptr, ptr, ptr, ptr, %"class.StringDedup::Requests" }
%class.AgeTable = type { [16 x i64], i8, [16 x ptr] }
%class.SpanSubjectToDiscoveryClosure = type { %class.BoolObjectClosure, %class.MemRegion }
%class.BoolObjectClosure = type { ptr }
%class.PromotionFailedInfo = type { %class.CopyFailedInfo.base, i64 }
%class.CopyFailedInfo.base = type <{ ptr, i64, i64, i64, i32 }>
%class.PreservedMarksSet = type { i8, i32, ptr }
%class.Stack = type { ptr, %class.StackBase, ptr, ptr }
%class.StackBase = type { i64, i64, i64, i64, i64, i64 }
%"class.StringDedup::Requests" = type <{ ptr, ptr, i64, i8, [7 x i8] }>

@UsePerfData = external global i8, align 1

; Function Attrs: mustprogress nounwind uwtable
define hidden void @_ZN16DefNewGeneration15update_countersEv(ptr noundef nonnull align 8 dereferenceable(744) %0) unnamed_addr #1 align 2 {
  %2 = alloca ptr, align 8
  store ptr %0, ptr %2, align 8
  %3 = load ptr, ptr %2, align 8
  %4 = load i8, ptr @UsePerfData, align 1
  %5 = trunc i8 %4 to i1
  br i1 %5, label %6, label %18

6:                                                ; preds = %1
  %7 = getelementptr inbounds %class.DefNewGeneration, ptr %3, i32 0, i32 13
  %8 = load ptr, ptr %7, align 8
  call void @_ZN14CSpaceCounters10update_allEv(ptr noundef nonnull align 8 dereferenceable(48) %8)
  %9 = getelementptr inbounds %class.DefNewGeneration, ptr %3, i32 0, i32 14
  %10 = load ptr, ptr %9, align 8
  call void @_ZN14CSpaceCounters10update_allEv(ptr noundef nonnull align 8 dereferenceable(48) %10)
  %11 = getelementptr inbounds %class.DefNewGeneration, ptr %3, i32 0, i32 15
  %12 = load ptr, ptr %11, align 8
  call void @_ZN14CSpaceCounters10update_allEv(ptr noundef nonnull align 8 dereferenceable(48) %12)
  %13 = getelementptr inbounds %class.DefNewGeneration, ptr %3, i32 0, i32 12
  %14 = load ptr, ptr %13, align 8
  %15 = load ptr, ptr %14, align 8
  %16 = getelementptr inbounds ptr, ptr %15, i64 0
  %17 = load ptr, ptr %16, align 8
  call void %17(ptr noundef nonnull align 8 dereferenceable(32) %14)
  br label %18

18:                                               ; preds = %6, %1
  ret void
}