; Function Attrs: mustprogress nounwind uwtable
define hidden void @_ZN16DefNewGeneration15update_countersEv(ptr nocapture noundef nonnull readonly align 8 dereferenceable(744) %0) unnamed_addr #0 align 2 {
  %2 = load i8, ptr @UsePerfData, align 1
  %3 = trunc i8 %2 to i1
  br i1 %3, label %4, label %15

4:                                                ; preds = %1
  %5 = getelementptr inbounds i8, ptr %0, i64 632
  %6 = load ptr, ptr %5, align 8
  tail call void @_ZN14CSpaceCounters10update_allEv(ptr noundef nonnull align 8 dereferenceable(48) %6) #19
  %7 = getelementptr inbounds i8, ptr %0, i64 640
  %8 = load ptr, ptr %7, align 8
  tail call void @_ZN14CSpaceCounters10update_allEv(ptr noundef nonnull align 8 dereferenceable(48) %8) #19
  %9 = getelementptr inbounds i8, ptr %0, i64 648
  %10 = load ptr, ptr %9, align 8
  tail call void @_ZN14CSpaceCounters10update_allEv(ptr noundef nonnull align 8 dereferenceable(48) %10) #19
  %11 = getelementptr inbounds i8, ptr %0, i64 624
  %12 = load ptr, ptr %11, align 8
  %13 = load ptr, ptr %12, align 8
  %14 = load ptr, ptr %13, align 8
  tail call void %14(ptr noundef nonnull align 8 dereferenceable(32) %12) #19
  br label %15

15:                                               ; preds = %4, %1
  ret void
}